target datalayout = "e-m:e-p270:32:32-p271:32:32-p272:64:64-i64:64-i128:128-f80:128-n8:16:32:64-S128"
target triple = "x86_64-pc-linux-gnu"

%"class.LIEF::PE::Export" = type { %"class.LIEF::Object", i32, i32, i16, i16, i32, %"class.std::vector", %"class.std::__cxx11::basic_string" }
%"class.LIEF::Object" = type { ptr }
%"class.std::vector" = type { %"struct.std::_Vector_base" }
%"struct.std::_Vector_base" = type { %"struct.std::_Vector_base<LIEF::PE::ExportEntry, std::allocator<LIEF::PE::ExportEntry>>::_Vector_impl" }
%"struct.std::_Vector_base<LIEF::PE::ExportEntry, std::allocator<LIEF::PE::ExportEntry>>::_Vector_impl" = type { %"struct.std::_Vector_base<LIEF::PE::ExportEntry, std::allocator<LIEF::PE::ExportEntry>>::_Vector_impl_data" }
%"struct.std::_Vector_base<LIEF::PE::ExportEntry, std::allocator<LIEF::PE::ExportEntry>>::_Vector_impl_data" = type { ptr, ptr, ptr }
%"class.std::__cxx11::basic_string" = type { %"struct.std::__cxx11::basic_string<char>::_Alloc_hider", i64, %union.anon }
%"struct.std::__cxx11::basic_string<char>::_Alloc_hider" = type { ptr }
%union.anon = type { i64, [8 x i8] }

; Function Attrs: mustprogress uwtable
define noundef nonnull align 8 dereferenceable(80) ptr @_ZN4LIEF2PE6ExportaSERKS1_(ptr noundef nonnull align 8 dereferenceable(80) %0, ptr noundef nonnull align 8 dereferenceable(80) %1) #3 align 2 {
  %3 = alloca ptr, align 8
  %4 = alloca ptr, align 8
  store ptr %0, ptr %3, align 8
  store ptr %1, ptr %4, align 8
  %5 = load ptr, ptr %3, align 8
  %6 = load ptr, ptr %4, align 8
  %7 = call noundef nonnull align 8 dereferenceable(8) ptr @_ZN4LIEF6ObjectaSERKS0_(ptr noundef nonnull align 8 dereferenceable(8) %5, ptr noundef nonnull align 8 dereferenceable(8) %6)
  %8 = getelementptr inbounds %"class.LIEF::PE::Export", ptr %5, i32 0, i32 1
  %9 = load ptr, ptr %4, align 8
  %10 = getelementptr inbounds %"class.LIEF::PE::Export", ptr %9, i32 0, i32 1
  call void @llvm.memcpy.p0.p0.i64(ptr align 8 %8, ptr align 8 %10, i64 16, i1 false)
  %11 = getelementptr inbounds %"class.LIEF::PE::Export", ptr %5, i32 0, i32 6
  %12 = load ptr, ptr %4, align 8
  %13 = getelementptr inbounds %"class.LIEF::PE::Export", ptr %12, i32 0, i32 6
  %14 = call noundef nonnull align 8 dereferenceable(24) ptr @_ZNSt6vectorIN4LIEF2PE11ExportEntryESaIS2_EEaSERKS4_(ptr noundef nonnull align 8 dereferenceable(24) %11, ptr noundef nonnull align 8 dereferenceable(24) %13)
  %15 = getelementptr inbounds %"class.LIEF::PE::Export", ptr %5, i32 0, i32 7
  %16 = load ptr, ptr %4, align 8
  %17 = getelementptr inbounds %"class.LIEF::PE::Export", ptr %16, i32 0, i32 7
  %18 = call noundef nonnull align 8 dereferenceable(32) ptr @_ZNSt7__cxx1112basic_stringIcSt11char_traitsIcESaIcEEaSERKS4_(ptr noundef nonnull align 8 dereferenceable(32) %15, ptr noundef nonnull align 8 dereferenceable(32) %17)
  ret ptr %5
}